target datalayout = "e-m:e-p270:32:32-p271:32:32-p272:64:64-i64:64-i128:128-f80:128-n8:16:32:64-S128"
target triple = "x86_64-pc-linux-gnu"

%struct._GtkTreeIter = type { i32, ptr, ptr, ptr }

; Function Attrs: nounwind uwtable
define internal i32 @_tree_reveal_func(ptr noundef %0, ptr noundef %1, ptr noundef %2, ptr noundef %3) #0 {
  %5 = alloca i32, align 4
  %6 = alloca ptr, align 8
  %7 = alloca ptr, align 8
  %8 = alloca ptr, align 8
  %9 = alloca ptr, align 8
  %10 = alloca i32, align 4
  %11 = alloca %struct._GtkTreeIter, align 8
  %12 = alloca %struct._GtkTreeIter, align 8
  %13 = alloca i32, align 4
  store ptr %0, ptr %6, align 8, !tbaa !36
  store ptr %1, ptr %7, align 8, !tbaa !138
  store ptr %2, ptr %8, align 8, !tbaa !134
  store ptr %3, ptr %9, align 8, !tbaa !51
  call void @llvm.lifetime.start.p0(i64 4, ptr %10) #11
  call void @llvm.lifetime.start.p0(i64 32, ptr %11) #11
  call void @llvm.lifetime.start.p0(i64 32, ptr %12) #11
  %14 = load ptr, ptr %8, align 8, !tbaa !134
  call void @llvm.memcpy.p0.p0.i64(ptr align 8 %12, ptr align 8 %14, i64 32, i1 false), !tbaa.struct !50
  %15 = load ptr, ptr %6, align 8, !tbaa !36
  %16 = load ptr, ptr %8, align 8, !tbaa !134
  call void (ptr, ptr, ...) @gtk_tree_model_get(ptr noundef %15, ptr noundef %16, i32 noundef 7, ptr noundef %10, i32 noundef -1)
  %17 = load i32, ptr %10, align 4, !tbaa !31
  %18 = icmp ne i32 %17, 0
  br i1 %18, label %20, label %19

19:                                               ; preds = %4
  store i32 0, ptr %5, align 4
  store i32 1, ptr %13, align 4
  br label %31

20:                                               ; preds = %4
  br label %21

21:                                               ; preds = %25, %20
  %22 = load ptr, ptr %6, align 8, !tbaa !36
  %23 = call i32 @gtk_tree_model_iter_parent(ptr noundef %22, ptr noundef %11, ptr noundef %12)
  %24 = icmp ne i32 %23, 0
  br i1 %24, label %25, label %30

25:                                               ; preds = %21
  %26 = load ptr, ptr %6, align 8, !tbaa !36
  call void (ptr, ptr, ...) @gtk_tree_model_get(ptr noundef %26, ptr noundef %11, i32 noundef 7, ptr noundef %10, i32 noundef -1)
  %27 = load ptr, ptr %6, align 8, !tbaa !36
  %28 = call i64 @gtk_tree_store_get_type() #12
  %29 = call ptr @g_type_check_instance_cast(ptr noundef %27, i64 noundef %28)
  call void (ptr, ptr, ...) @gtk_tree_store_set(ptr noundef %29, ptr noundef %11, i32 noundef 7, i32 noundef 1, i32 noundef -1)
  call void @llvm.memcpy.p0.p0.i64(ptr align 8 %12, ptr align 8 %11, i64 32, i1 false), !tbaa.struct !50
  br label %21

30:                                               ; preds = %21
  store i32 0, ptr %5, align 4
  store i32 1, ptr %13, align 4
  br label %31

31:                                               ; preds = %30, %19
  call void @llvm.lifetime.end.p0(i64 32, ptr %12) #11
  call void @llvm.lifetime.end.p0(i64 32, ptr %11) #11
  call void @llvm.lifetime.end.p0(i64 4, ptr %10) #11
  %32 = load i32, ptr %5, align 4
  ret i32 %32
}