; Function Attrs: nounwind uwtable
define internal noundef i32 @_tree_reveal_func(ptr noundef %0, ptr readnone captures(none) %1, ptr noundef %2, ptr readnone captures(none) %3) #1 {
  %5 = alloca i32, align 4
  %6 = alloca %struct._GtkTreeIter, align 8
  %7 = alloca %struct._GtkTreeIter, align 8
  call void @llvm.lifetime.start.p0(i64 4, ptr nonnull %5) #16
  call void @llvm.lifetime.start.p0(i64 32, ptr nonnull %6) #16
  call void @llvm.lifetime.start.p0(i64 32, ptr nonnull %7) #16
  call void @llvm.memcpy.p0.p0.i64(ptr noundef nonnull align 8 dereferenceable(32) %7, ptr noundef nonnull align 8 dereferenceable(32) %2, i64 32, i1 false), !tbaa.struct !45
  call void (ptr, ptr, ...) @gtk_tree_model_get(ptr noundef %0, ptr noundef nonnull %2, i32 noundef 7, ptr noundef nonnull %5, i32 noundef -1) #16
  %8 = load i32, ptr %5, align 4, !tbaa !46
  %.not = icmp eq i32 %8, 0
  br i1 %.not, label %.loopexit, label %.preheader

.preheader:                                       ; preds = %4
  %9 = call i32 @gtk_tree_model_iter_parent(ptr noundef %0, ptr noundef nonnull %6, ptr noundef nonnull %7) #16
  %.not67 = icmp eq i32 %9, 0
  br i1 %.not67, label %.loopexit, label %.lr.ph

.lr.ph:                                           ; preds = %.preheader, %.lr.ph
  call void (ptr, ptr, ...) @gtk_tree_model_get(ptr noundef %0, ptr noundef nonnull %6, i32 noundef 7, ptr noundef nonnull %5, i32 noundef -1) #16
  %10 = tail call i64 @gtk_tree_store_get_type() #17
  %11 = call ptr @g_type_check_instance_cast(ptr noundef %0, i64 noundef %10) #16
  call void (ptr, ptr, ...) @gtk_tree_store_set(ptr noundef %11, ptr noundef nonnull %6, i32 noundef 7, i32 noundef 1, i32 noundef -1) #16
  call void @llvm.memcpy.p0.p0.i64(ptr noundef nonnull align 8 dereferenceable(32) %7, ptr noundef nonnull align 8 dereferenceable(32) %6, i64 32, i1 false), !tbaa.struct !45
  %12 = call i32 @gtk_tree_model_iter_parent(ptr noundef %0, ptr noundef nonnull %6, ptr noundef nonnull %7) #16
  %.not6 = icmp eq i32 %12, 0
  br i1 %.not6, label %.loopexit, label %.lr.ph

.loopexit:                                        ; preds = %.lr.ph, %.preheader, %4
  call void @llvm.lifetime.end.p0(i64 32, ptr nonnull %7) #16
  call void @llvm.lifetime.end.p0(i64 32, ptr nonnull %6) #16
  call void @llvm.lifetime.end.p0(i64 4, ptr nonnull %5) #16
  ret i32 0
}